target datalayout = "e-m:e-p270:32:32-p271:32:32-p272:64:64-i64:64-i128:128-f80:128-n8:16:32:64-S128"
target triple = "x86_64-pc-linux-gnu"

%"class.std::__cxx11::basic_string" = type { %"struct.std::__cxx11::basic_string<char>::_Alloc_hider", i64, %union.anon }
%"struct.std::__cxx11::basic_string<char>::_Alloc_hider" = type { ptr }
%union.anon = type { i64, [8 x i8] }
%"struct.std::_Rb_tree_key_compare" = type { %"struct.std::less" }
%"struct.std::less" = type { i8 }
%"struct.std::_Rb_tree_header" = type { %"struct.std::_Rb_tree_node_base", i64 }
%"struct.std::_Rb_tree_node_base" = type { i32, ptr, ptr, ptr }
%"class.std::_Rb_tree.964" = type { %"struct.std::_Rb_tree<std::__cxx11::basic_string<char>, std::pair<const std::__cxx11::basic_string<char>, AvailableModuleInfo>, std::_Select1st<std::pair<const std::__cxx11::basic_string<char>, AvailableModuleInfo>>, std::less<std::__cxx11::basic_string<char>>>::_Rb_tree_impl" }
%"struct.std::_Rb_tree<std::__cxx11::basic_string<char>, std::pair<const std::__cxx11::basic_string<char>, AvailableModuleInfo>, std::_Select1st<std::pair<const std::__cxx11::basic_string<char>, AvailableModuleInfo>>, std::less<std::__cxx11::basic_string<char>>>::_Rb_tree_impl" = type { %"struct.std::_Rb_tree_key_compare", %"struct.std::_Rb_tree_header" }
%struct.AvailableModuleInfo = type <{ %"class.std::__cxx11::basic_string", i8, [7 x i8] }>
%"struct.std::pair.1008" = type { %"class.std::__cxx11::basic_string", %struct.AvailableModuleInfo }
%"struct.std::_Rb_tree_node.1117" = type { %"struct.std::_Rb_tree_node_base", %"struct.__gnu_cxx::__aligned_membuf.1118" }
%"struct.__gnu_cxx::__aligned_membuf.1118" = type { [72 x i8] }

; Function Attrs: mustprogress nounwind uwtable
define internal void @_ZZN22cmGlobalNinjaGenerator15WriteDyndepFileERKNSt7__cxx1112basic_stringIcSt11char_traitsIcESaIcEEES7_S7_S7_S7_RKSt6vectorIS5_SaIS5_EES7_SC_SC_S7_S7_RK21cmCxxModuleExportInfoEN19AvailableModuleInfoD2Ev(ptr noundef nonnull align 8 dereferenceable(33) %0) unnamed_addr #5 align 2 {
  %2 = alloca ptr, align 8
  store ptr %0, ptr %2, align 8
  %3 = load ptr, ptr %2, align 8
  %4 = getelementptr inbounds %struct.AvailableModuleInfo, ptr %3, i32 0, i32 0
  call void @_ZNSt7__cxx1112basic_stringIcSt11char_traitsIcESaIcEED1Ev(ptr noundef nonnull align 8 dereferenceable(32) %4) #3
  ret void
}

; Function Attrs: mustprogress nounwind uwtable
define internal void @_ZNSt4pairIKNSt7__cxx1112basic_stringIcSt11char_traitsIcESaIcEEEZN22cmGlobalNinjaGenerator15WriteDyndepFileERS6_S8_S8_S8_S8_RKSt6vectorIS5_SaIS5_EES8_SD_SD_S8_S8_RK21cmCxxModuleExportInfoE19AvailableModuleInfoED2Ev(ptr noundef nonnull align 8 dereferenceable(72) %0) unnamed_addr #5 align 2 {
  %2 = alloca ptr, align 8
  store ptr %0, ptr %2, align 8
  %3 = load ptr, ptr %2, align 8
  %4 = getelementptr inbounds %"struct.std::pair.1008", ptr %3, i32 0, i32 1
  call void @_ZZN22cmGlobalNinjaGenerator15WriteDyndepFileERKNSt7__cxx1112basic_stringIcSt11char_traitsIcESaIcEEES7_S7_S7_S7_RKSt6vectorIS5_SaIS5_EES7_SC_SC_S7_S7_RK21cmCxxModuleExportInfoEN19AvailableModuleInfoD2Ev(ptr noundef nonnull align 8 dereferenceable(33) %4) #3
  %5 = getelementptr inbounds %"struct.std::pair.1008", ptr %3, i32 0, i32 0
  call void @_ZNSt7__cxx1112basic_stringIcSt11char_traitsIcESaIcEED1Ev(ptr noundef nonnull align 8 dereferenceable(32) %5) #3
  ret void
}

; Function Attrs: mustprogress nounwind uwtable
define internal noundef ptr @_ZN9__gnu_cxx16__aligned_membufISt4pairIKNSt7__cxx1112basic_stringIcSt11char_traitsIcESaIcEEEZN22cmGlobalNinjaGenerator15WriteDyndepFileERS8_SA_SA_SA_SA_RKSt6vectorIS7_SaIS7_EESA_SF_SF_SA_SA_RK21cmCxxModuleExportInfoE19AvailableModuleInfoEE7_M_addrEv(ptr noundef nonnull align 8 dereferenceable(72) %0) #5 align 2 {
  %2 = alloca ptr, align 8
  store ptr %0, ptr %2, align 8
  %3 = load ptr, ptr %2, align 8
  %4 = getelementptr inbounds %"struct.__gnu_cxx::__aligned_membuf.1118", ptr %3, i32 0, i32 0
  ret ptr %4
}

; Function Attrs: mustprogress nounwind uwtable
define internal void @_ZNSt15__new_allocatorISt13_Rb_tree_nodeISt4pairIKNSt7__cxx1112basic_stringIcSt11char_traitsIcESaIcEEEZN22cmGlobalNinjaGenerator15WriteDyndepFileERS8_SA_SA_SA_SA_RKSt6vectorIS7_SaIS7_EESA_SF_SF_SA_SA_RK21cmCxxModuleExportInfoE19AvailableModuleInfoEEE10deallocateEPSL_m(ptr noundef nonnull align 1 dereferenceable(1) %0, ptr noundef %1, i64 noundef %2) #5 align 2 {
  %4 = alloca ptr, align 8
  %5 = alloca ptr, align 8
  %6 = alloca i64, align 8
  store ptr %0, ptr %4, align 8
  store ptr %1, ptr %5, align 8
  store i64 %2, ptr %6, align 8
  %7 = load ptr, ptr %5, align 8
  call void @_ZdlPv(ptr noundef %7) #19
  ret void
}

; Function Attrs: mustprogress nounwind uwtable
define internal void @_ZNSt15__new_allocatorISt13_Rb_tree_nodeISt4pairIKNSt7__cxx1112basic_stringIcSt11char_traitsIcESaIcEEEZN22cmGlobalNinjaGenerator15WriteDyndepFileERS8_SA_SA_SA_SA_RKSt6vectorIS7_SaIS7_EESA_SF_SF_SA_SA_RK21cmCxxModuleExportInfoE19AvailableModuleInfoEEE7destroyISK_EEvPT_(ptr noundef nonnull align 1 dereferenceable(1) %0, ptr noundef %1) #5 align 2 {
  %3 = alloca ptr, align 8
  %4 = alloca ptr, align 8
  store ptr %0, ptr %3, align 8
  store ptr %1, ptr %4, align 8
  %5 = load ptr, ptr %4, align 8
  call void @_ZNSt4pairIKNSt7__cxx1112basic_stringIcSt11char_traitsIcESaIcEEEZN22cmGlobalNinjaGenerator15WriteDyndepFileERS6_S8_S8_S8_S8_RKSt6vectorIS5_SaIS5_EES8_SD_SD_S8_S8_RK21cmCxxModuleExportInfoE19AvailableModuleInfoED2Ev(ptr noundef nonnull align 8 dereferenceable(72) %5) #3
  ret void
}

; Function Attrs: mustprogress nounwind uwtable
define internal noundef ptr @_ZN9__gnu_cxx16__aligned_membufISt4pairIKNSt7__cxx1112basic_stringIcSt11char_traitsIcESaIcEEEZN22cmGlobalNinjaGenerator15WriteDyndepFileERS8_SA_SA_SA_SA_RKSt6vectorIS7_SaIS7_EESA_SF_SF_SA_SA_RK21cmCxxModuleExportInfoE19AvailableModuleInfoEE6_M_ptrEv(ptr noundef nonnull align 8 dereferenceable(72) %0) #5 align 2 {
  %2 = alloca ptr, align 8
  store ptr %0, ptr %2, align 8
  %3 = load ptr, ptr %2, align 8
  %4 = call noundef ptr @_ZN9__gnu_cxx16__aligned_membufISt4pairIKNSt7__cxx1112basic_stringIcSt11char_traitsIcESaIcEEEZN22cmGlobalNinjaGenerator15WriteDyndepFileERS8_SA_SA_SA_SA_RKSt6vectorIS7_SaIS7_EESA_SF_SF_SA_SA_RK21cmCxxModuleExportInfoE19AvailableModuleInfoEE7_M_addrEv(ptr noundef nonnull align 8 dereferenceable(72) %3) #3
  ret ptr %4
}

; Function Attrs: noreturn nounwind uwtable
define linkonce_odr hidden void @__clang_call_terminate(ptr noundef %0) #9 comdat {
  %2 = call ptr @__cxa_begin_catch(ptr %0) #3
  call void @_ZSt9terminatev() #17
  unreachable
}

; Function Attrs: mustprogress uwtable
define internal void @_ZNSt16allocator_traitsISaISt13_Rb_tree_nodeISt4pairIKNSt7__cxx1112basic_stringIcSt11char_traitsIcESaIcEEEZN22cmGlobalNinjaGenerator15WriteDyndepFileERS8_SA_SA_SA_SA_RKSt6vectorIS7_SaIS7_EESA_SF_SF_SA_SA_RK21cmCxxModuleExportInfoE19AvailableModuleInfoEEEE10deallocateERSM_PSL_m(ptr noundef nonnull align 1 dereferenceable(1) %0, ptr noundef %1, i64 noundef %2) #4 align 2 {
  %4 = alloca ptr, align 8
  %5 = alloca ptr, align 8
  %6 = alloca i64, align 8
  store ptr %0, ptr %4, align 8
  store ptr %1, ptr %5, align 8
  store i64 %2, ptr %6, align 8
  %7 = load ptr, ptr %4, align 8
  %8 = load ptr, ptr %5, align 8
  %9 = load i64, ptr %6, align 8
  call void @_ZNSt15__new_allocatorISt13_Rb_tree_nodeISt4pairIKNSt7__cxx1112basic_stringIcSt11char_traitsIcESaIcEEEZN22cmGlobalNinjaGenerator15WriteDyndepFileERS8_SA_SA_SA_SA_RKSt6vectorIS7_SaIS7_EESA_SF_SF_SA_SA_RK21cmCxxModuleExportInfoE19AvailableModuleInfoEEE10deallocateEPSL_m(ptr noundef nonnull align 1 dereferenceable(1) %7, ptr noundef %8, i64 noundef %9)
  ret void
}

; Function Attrs: mustprogress nounwind uwtable
define internal void @_ZNSt16allocator_traitsISaISt13_Rb_tree_nodeISt4pairIKNSt7__cxx1112basic_stringIcSt11char_traitsIcESaIcEEEZN22cmGlobalNinjaGenerator15WriteDyndepFileERS8_SA_SA_SA_SA_RKSt6vectorIS7_SaIS7_EESA_SF_SF_SA_SA_RK21cmCxxModuleExportInfoE19AvailableModuleInfoEEEE7destroyISK_EEvRSM_PT_(ptr noundef nonnull align 1 dereferenceable(1) %0, ptr noundef %1) #5 align 2 {
  %3 = alloca ptr, align 8
  %4 = alloca ptr, align 8
  store ptr %0, ptr %3, align 8
  store ptr %1, ptr %4, align 8
  %5 = load ptr, ptr %3, align 8
  %6 = load ptr, ptr %4, align 8
  call void @_ZNSt15__new_allocatorISt13_Rb_tree_nodeISt4pairIKNSt7__cxx1112basic_stringIcSt11char_traitsIcESaIcEEEZN22cmGlobalNinjaGenerator15WriteDyndepFileERS8_SA_SA_SA_SA_RKSt6vectorIS7_SaIS7_EESA_SF_SF_SA_SA_RK21cmCxxModuleExportInfoE19AvailableModuleInfoEEE7destroyISK_EEvPT_(ptr noundef nonnull align 1 dereferenceable(1) %5, ptr noundef %6) #3
  ret void
}

; Function Attrs: mustprogress nounwind uwtable
define internal noundef ptr @_ZNSt13_Rb_tree_nodeISt4pairIKNSt7__cxx1112basic_stringIcSt11char_traitsIcESaIcEEEZN22cmGlobalNinjaGenerator15WriteDyndepFileERS7_S9_S9_S9_S9_RKSt6vectorIS6_SaIS6_EES9_SE_SE_S9_S9_RK21cmCxxModuleExportInfoE19AvailableModuleInfoEE9_M_valptrEv(ptr noundef nonnull align 8 dereferenceable(104) %0) #5 align 2 {
  %2 = alloca ptr, align 8
  store ptr %0, ptr %2, align 8
  %3 = load ptr, ptr %2, align 8
  %4 = getelementptr inbounds %"struct.std::_Rb_tree_node.1117", ptr %3, i32 0, i32 1
  %5 = call noundef ptr @_ZN9__gnu_cxx16__aligned_membufISt4pairIKNSt7__cxx1112basic_stringIcSt11char_traitsIcESaIcEEEZN22cmGlobalNinjaGenerator15WriteDyndepFileERS8_SA_SA_SA_SA_RKSt6vectorIS7_SaIS7_EESA_SF_SF_SA_SA_RK21cmCxxModuleExportInfoE19AvailableModuleInfoEE6_M_ptrEv(ptr noundef nonnull align 8 dereferenceable(72) %4) #3
  ret ptr %5
}

; Function Attrs: mustprogress nounwind uwtable
define internal noundef nonnull align 1 dereferenceable(1) ptr @_ZNSt8_Rb_treeINSt7__cxx1112basic_stringIcSt11char_traitsIcESaIcEEESt4pairIKS5_ZN22cmGlobalNinjaGenerator15WriteDyndepFileERS7_S9_S9_S9_S9_RKSt6vectorIS5_SaIS5_EES9_SE_SE_S9_S9_RK21cmCxxModuleExportInfoE19AvailableModuleInfoESt10_Select1stISJ_ESt4lessIS5_ESaISJ_EE21_M_get_Node_allocatorEv(ptr noundef nonnull align 8 dereferenceable(48) %0) #5 align 2 {
  %2 = alloca ptr, align 8
  store ptr %0, ptr %2, align 8
  %3 = load ptr, ptr %2, align 8
  %4 = getelementptr inbounds %"class.std::_Rb_tree.964", ptr %3, i32 0, i32 0
  ret ptr %4
}

; Function Attrs: mustprogress nounwind uwtable
define internal void @_ZNSt8_Rb_treeINSt7__cxx1112basic_stringIcSt11char_traitsIcESaIcEEESt4pairIKS5_ZN22cmGlobalNinjaGenerator15WriteDyndepFileERS7_S9_S9_S9_S9_RKSt6vectorIS5_SaIS5_EES9_SE_SE_S9_S9_RK21cmCxxModuleExportInfoE19AvailableModuleInfoESt10_Select1stISJ_ESt4lessIS5_ESaISJ_EE11_M_put_nodeEPSt13_Rb_tree_nodeISJ_E(ptr noundef nonnull align 8 dereferenceable(48) %0, ptr noundef %1) #5 align 2 personality ptr @__gxx_personality_v0 {
  %3 = alloca ptr, align 8
  %4 = alloca ptr, align 8
  store ptr %0, ptr %3, align 8
  store ptr %1, ptr %4, align 8
  %5 = load ptr, ptr %3, align 8
  %6 = call noundef nonnull align 1 dereferenceable(1) ptr @_ZNSt8_Rb_treeINSt7__cxx1112basic_stringIcSt11char_traitsIcESaIcEEESt4pairIKS5_ZN22cmGlobalNinjaGenerator15WriteDyndepFileERS7_S9_S9_S9_S9_RKSt6vectorIS5_SaIS5_EES9_SE_SE_S9_S9_RK21cmCxxModuleExportInfoE19AvailableModuleInfoESt10_Select1stISJ_ESt4lessIS5_ESaISJ_EE21_M_get_Node_allocatorEv(ptr noundef nonnull align 8 dereferenceable(48) %5) #3
  %7 = load ptr, ptr %4, align 8
  invoke void @_ZNSt16allocator_traitsISaISt13_Rb_tree_nodeISt4pairIKNSt7__cxx1112basic_stringIcSt11char_traitsIcESaIcEEEZN22cmGlobalNinjaGenerator15WriteDyndepFileERS8_SA_SA_SA_SA_RKSt6vectorIS7_SaIS7_EESA_SF_SF_SA_SA_RK21cmCxxModuleExportInfoE19AvailableModuleInfoEEEE10deallocateERSM_PSL_m(ptr noundef nonnull align 1 dereferenceable(1) %6, ptr noundef %7, i64 noundef 1)
          to label %8 unwind label %9

8:                                                ; preds = %2
  ret void

9:                                                ; preds = %2
  %10 = landingpad { ptr, i32 }
          catch ptr null
  %11 = extractvalue { ptr, i32 } %10, 0
  call void @__clang_call_terminate(ptr %11) #17
  unreachable
}

; Function Attrs: mustprogress nounwind uwtable
define internal void @_ZNSt8_Rb_treeINSt7__cxx1112basic_stringIcSt11char_traitsIcESaIcEEESt4pairIKS5_ZN22cmGlobalNinjaGenerator15WriteDyndepFileERS7_S9_S9_S9_S9_RKSt6vectorIS5_SaIS5_EES9_SE_SE_S9_S9_RK21cmCxxModuleExportInfoE19AvailableModuleInfoESt10_Select1stISJ_ESt4lessIS5_ESaISJ_EE15_M_destroy_nodeEPSt13_Rb_tree_nodeISJ_E(ptr noundef nonnull align 8 dereferenceable(48) %0, ptr noundef %1) #5 align 2 {
  %3 = alloca ptr, align 8
  %4 = alloca ptr, align 8
  store ptr %0, ptr %3, align 8
  store ptr %1, ptr %4, align 8
  %5 = load ptr, ptr %3, align 8
  %6 = call noundef nonnull align 1 dereferenceable(1) ptr @_ZNSt8_Rb_treeINSt7__cxx1112basic_stringIcSt11char_traitsIcESaIcEEESt4pairIKS5_ZN22cmGlobalNinjaGenerator15WriteDyndepFileERS7_S9_S9_S9_S9_RKSt6vectorIS5_SaIS5_EES9_SE_SE_S9_S9_RK21cmCxxModuleExportInfoE19AvailableModuleInfoESt10_Select1stISJ_ESt4lessIS5_ESaISJ_EE21_M_get_Node_allocatorEv(ptr noundef nonnull align 8 dereferenceable(48) %5) #3
  %7 = load ptr, ptr %4, align 8
  %8 = call noundef ptr @_ZNSt13_Rb_tree_nodeISt4pairIKNSt7__cxx1112basic_stringIcSt11char_traitsIcESaIcEEEZN22cmGlobalNinjaGenerator15WriteDyndepFileERS7_S9_S9_S9_S9_RKSt6vectorIS6_SaIS6_EES9_SE_SE_S9_S9_RK21cmCxxModuleExportInfoE19AvailableModuleInfoEE9_M_valptrEv(ptr noundef nonnull align 8 dereferenceable(104) %7)
  call void @_ZNSt16allocator_traitsISaISt13_Rb_tree_nodeISt4pairIKNSt7__cxx1112basic_stringIcSt11char_traitsIcESaIcEEEZN22cmGlobalNinjaGenerator15WriteDyndepFileERS8_SA_SA_SA_SA_RKSt6vectorIS7_SaIS7_EESA_SF_SF_SA_SA_RK21cmCxxModuleExportInfoE19AvailableModuleInfoEEEE7destroyISK_EEvRSM_PT_(ptr noundef nonnull align 1 dereferenceable(1) %6, ptr noundef %8) #3
  ret void
}

; Function Attrs: mustprogress nounwind uwtable
define internal void @_ZNSt8_Rb_treeINSt7__cxx1112basic_stringIcSt11char_traitsIcESaIcEEESt4pairIKS5_ZN22cmGlobalNinjaGenerator15WriteDyndepFileERS7_S9_S9_S9_S9_RKSt6vectorIS5_SaIS5_EES9_SE_SE_S9_S9_RK21cmCxxModuleExportInfoE19AvailableModuleInfoESt10_Select1stISJ_ESt4lessIS5_ESaISJ_EE12_M_drop_nodeEPSt13_Rb_tree_nodeISJ_E(ptr noundef nonnull align 8 dereferenceable(48) %0, ptr noundef %1) #5 align 2 {
  %3 = alloca ptr, align 8
  %4 = alloca ptr, align 8
  store ptr %0, ptr %3, align 8
  store ptr %1, ptr %4, align 8
  %5 = load ptr, ptr %3, align 8
  %6 = load ptr, ptr %4, align 8
  call void @_ZNSt8_Rb_treeINSt7__cxx1112basic_stringIcSt11char_traitsIcESaIcEEESt4pairIKS5_ZN22cmGlobalNinjaGenerator15WriteDyndepFileERS7_S9_S9_S9_S9_RKSt6vectorIS5_SaIS5_EES9_SE_SE_S9_S9_RK21cmCxxModuleExportInfoE19AvailableModuleInfoESt10_Select1stISJ_ESt4lessIS5_ESaISJ_EE15_M_destroy_nodeEPSt13_Rb_tree_nodeISJ_E(ptr noundef nonnull align 8 dereferenceable(48) %5, ptr noundef %6) #3
  %7 = load ptr, ptr %4, align 8
  call void @_ZNSt8_Rb_treeINSt7__cxx1112basic_stringIcSt11char_traitsIcESaIcEEESt4pairIKS5_ZN22cmGlobalNinjaGenerator15WriteDyndepFileERS7_S9_S9_S9_S9_RKSt6vectorIS5_SaIS5_EES9_SE_SE_S9_S9_RK21cmCxxModuleExportInfoE19AvailableModuleInfoESt10_Select1stISJ_ESt4lessIS5_ESaISJ_EE11_M_put_nodeEPSt13_Rb_tree_nodeISJ_E(ptr noundef nonnull align 8 dereferenceable(48) %5, ptr noundef %7) #3
  ret void
}

; Function Attrs: mustprogress nounwind uwtable
define internal noundef ptr @_ZNSt8_Rb_treeINSt7__cxx1112basic_stringIcSt11char_traitsIcESaIcEEESt4pairIKS5_ZN22cmGlobalNinjaGenerator15WriteDyndepFileERS7_S9_S9_S9_S9_RKSt6vectorIS5_SaIS5_EES9_SE_SE_S9_S9_RK21cmCxxModuleExportInfoE19AvailableModuleInfoESt10_Select1stISJ_ESt4lessIS5_ESaISJ_EE7_S_leftEPSt18_Rb_tree_node_base(ptr noundef %0) #5 align 2 {
  %2 = alloca ptr, align 8
  store ptr %0, ptr %2, align 8
  %3 = load ptr, ptr %2, align 8
  %4 = getelementptr inbounds %"struct.std::_Rb_tree_node_base", ptr %3, i32 0, i32 2
  %5 = load ptr, ptr %4, align 8
  ret ptr %5
}

; Function Attrs: mustprogress nounwind uwtable
define internal noundef ptr @_ZNSt8_Rb_treeINSt7__cxx1112basic_stringIcSt11char_traitsIcESaIcEEESt4pairIKS5_ZN22cmGlobalNinjaGenerator15WriteDyndepFileERS7_S9_S9_S9_S9_RKSt6vectorIS5_SaIS5_EES9_SE_SE_S9_S9_RK21cmCxxModuleExportInfoE19AvailableModuleInfoESt10_Select1stISJ_ESt4lessIS5_ESaISJ_EE8_S_rightEPSt18_Rb_tree_node_base(ptr noundef %0) #5 align 2 {
  %2 = alloca ptr, align 8
  store ptr %0, ptr %2, align 8
  %3 = load ptr, ptr %2, align 8
  %4 = getelementptr inbounds %"struct.std::_Rb_tree_node_base", ptr %3, i32 0, i32 3
  %5 = load ptr, ptr %4, align 8
  ret ptr %5
}

; Function Attrs: mustprogress uwtable
define internal void @_ZNSt8_Rb_treeINSt7__cxx1112basic_stringIcSt11char_traitsIcESaIcEEESt4pairIKS5_ZN22cmGlobalNinjaGenerator15WriteDyndepFileERS7_S9_S9_S9_S9_RKSt6vectorIS5_SaIS5_EES9_SE_SE_S9_S9_RK21cmCxxModuleExportInfoE19AvailableModuleInfoESt10_Select1stISJ_ESt4lessIS5_ESaISJ_EE8_M_eraseEPSt13_Rb_tree_nodeISJ_E(ptr noundef nonnull align 8 dereferenceable(48) %0, ptr noundef %1) #4 align 2 {
  %3 = alloca ptr, align 8
  %4 = alloca ptr, align 8
  %5 = alloca ptr, align 8
  store ptr %0, ptr %3, align 8
  store ptr %1, ptr %4, align 8
  %6 = load ptr, ptr %3, align 8
  br label %7

7:                                                ; preds = %10, %2
  %8 = load ptr, ptr %4, align 8
  %9 = icmp ne ptr %8, null
  br i1 %9, label %10, label %17

10:                                               ; preds = %7
  %11 = load ptr, ptr %4, align 8
  %12 = call noundef ptr @_ZNSt8_Rb_treeINSt7__cxx1112basic_stringIcSt11char_traitsIcESaIcEEESt4pairIKS5_ZN22cmGlobalNinjaGenerator15WriteDyndepFileERS7_S9_S9_S9_S9_RKSt6vectorIS5_SaIS5_EES9_SE_SE_S9_S9_RK21cmCxxModuleExportInfoE19AvailableModuleInfoESt10_Select1stISJ_ESt4lessIS5_ESaISJ_EE8_S_rightEPSt18_Rb_tree_node_base(ptr noundef %11) #3
  call void @_ZNSt8_Rb_treeINSt7__cxx1112basic_stringIcSt11char_traitsIcESaIcEEESt4pairIKS5_ZN22cmGlobalNinjaGenerator15WriteDyndepFileERS7_S9_S9_S9_S9_RKSt6vectorIS5_SaIS5_EES9_SE_SE_S9_S9_RK21cmCxxModuleExportInfoE19AvailableModuleInfoESt10_Select1stISJ_ESt4lessIS5_ESaISJ_EE8_M_eraseEPSt13_Rb_tree_nodeISJ_E(ptr noundef nonnull align 8 dereferenceable(48) %6, ptr noundef %12)
  %13 = load ptr, ptr %4, align 8
  %14 = call noundef ptr @_ZNSt8_Rb_treeINSt7__cxx1112basic_stringIcSt11char_traitsIcESaIcEEESt4pairIKS5_ZN22cmGlobalNinjaGenerator15WriteDyndepFileERS7_S9_S9_S9_S9_RKSt6vectorIS5_SaIS5_EES9_SE_SE_S9_S9_RK21cmCxxModuleExportInfoE19AvailableModuleInfoESt10_Select1stISJ_ESt4lessIS5_ESaISJ_EE7_S_leftEPSt18_Rb_tree_node_base(ptr noundef %13) #3
  store ptr %14, ptr %5, align 8
  %15 = load ptr, ptr %4, align 8
  call void @_ZNSt8_Rb_treeINSt7__cxx1112basic_stringIcSt11char_traitsIcESaIcEEESt4pairIKS5_ZN22cmGlobalNinjaGenerator15WriteDyndepFileERS7_S9_S9_S9_S9_RKSt6vectorIS5_SaIS5_EES9_SE_SE_S9_S9_RK21cmCxxModuleExportInfoE19AvailableModuleInfoESt10_Select1stISJ_ESt4lessIS5_ESaISJ_EE12_M_drop_nodeEPSt13_Rb_tree_nodeISJ_E(ptr noundef nonnull align 8 dereferenceable(48) %6, ptr noundef %15) #3
  %16 = load ptr, ptr %5, align 8
  store ptr %16, ptr %4, align 8
  br label %7, !llvm.loop !57

17:                                               ; preds = %7
  ret void
}