; Function Attrs: mustprogress nounwind uwtable
define internal fastcc void @_ZNSt8_Rb_treeINSt7__cxx1112basic_stringIcSt11char_traitsIcESaIcEEESt4pairIKS5_ZN22cmGlobalNinjaGenerator15WriteDyndepFileERS7_S9_S9_S9_S9_RKSt6vectorIS5_SaIS5_EES9_SE_SE_S9_S9_RK21cmCxxModuleExportInfoE19AvailableModuleInfoESt10_Select1stISJ_ESt4lessIS5_ESaISJ_EE8_M_eraseEPSt13_Rb_tree_nodeISJ_E(ptr noundef %0) unnamed_addr #4 align 2 personality ptr @__gxx_personality_v0 {
  %.not7 = icmp eq ptr %0, null
  br i1 %.not7, label %._crit_edge, label %.lr.ph

.lr.ph:                                           ; preds = %1, %.lr.ph
  %.08 = phi ptr [ %.0.val, %.lr.ph ], [ %0, %1 ]
  %2 = getelementptr i8, ptr %.08, i64 24
  %.0.val6 = load ptr, ptr %2, align 8
  tail call fastcc void @_ZNSt8_Rb_treeINSt7__cxx1112basic_stringIcSt11char_traitsIcESaIcEEESt4pairIKS5_ZN22cmGlobalNinjaGenerator15WriteDyndepFileERS7_S9_S9_S9_S9_RKSt6vectorIS5_SaIS5_EES9_SE_SE_S9_S9_RK21cmCxxModuleExportInfoE19AvailableModuleInfoESt10_Select1stISJ_ESt4lessIS5_ESaISJ_EE8_M_eraseEPSt13_Rb_tree_nodeISJ_E(ptr noundef %.0.val6)
  %3 = getelementptr i8, ptr %.08, i64 16
  %.0.val = load ptr, ptr %3, align 8
  %4 = getelementptr inbounds i8, ptr %.08, i64 32
  %5 = getelementptr inbounds i8, ptr %.08, i64 64
  tail call void @_ZNSt7__cxx1112basic_stringIcSt11char_traitsIcESaIcEED1Ev(ptr noundef nonnull align 8 dereferenceable(32) %5) #23
  tail call void @_ZNSt7__cxx1112basic_stringIcSt11char_traitsIcESaIcEED1Ev(ptr noundef nonnull align 8 dereferenceable(32) %4) #23
  tail call void @_ZdlPv(ptr noundef nonnull %.08) #26
  %.not = icmp eq ptr %.0.val, null
  br i1 %.not, label %._crit_edge, label %.lr.ph, !llvm.loop !1394

._crit_edge:                                      ; preds = %.lr.ph, %1
  ret void
}